; Function Attrs: nounwind uwtable
define hidden noundef ptr @png_convert_to_rfc1123(ptr noalias noundef %0, ptr nocapture noundef readonly %1) local_unnamed_addr #0 {
  %.not = icmp eq ptr %0, null
  br i1 %.not, label %8, label %3

3:                                                ; preds = %2
  %4 = getelementptr inbounds i8, ptr %0, i64 792
  %5 = tail call i32 @png_convert_to_rfc1123_buffer(ptr noundef nonnull %4, ptr noundef %1)
  %6 = icmp eq i32 %5, 0
  br i1 %6, label %7, label %8

7:                                                ; preds = %3
  tail call void @png_warning(ptr noundef nonnull %0, ptr noundef nonnull @.str.7) #29
  br label %8

8:                                                ; preds = %2, %7, %3
  %.0 = phi ptr [ %4, %3 ], [ null, %7 ], [ null, %2 ]
  ret ptr %.0
}